target datalayout = "e-m:e-p270:32:32-p271:32:32-p272:64:64-i64:64-i128:128-f80:128-n8:16:32:64-S128"
target triple = "x86_64-pc-linux-gnu"

%struct.slurm_conf_t = type { i64, ptr, i16, ptr, ptr, ptr, ptr, ptr, i16, ptr, ptr, ptr, ptr, ptr, ptr, ptr, i16, ptr, ptr, ptr, ptr, i16, ptr, ptr, ptr, i64, ptr, ptr, ptr, ptr, i16, ptr, ptr, i16, i32, ptr, i32, ptr, i32, i32, ptr, ptr, i64, i64, ptr, i16, i16, ptr, i32, i32, ptr, i32, ptr, i32, i16, i16, i16, ptr, i16, i16, ptr, ptr, i32, i16, i16, ptr, i32, i16, ptr, ptr, ptr, ptr, i16, ptr, ptr, ptr, ptr, i32, ptr, ptr, ptr, ptr, i16, i16, ptr, i32, i32, i32, i16, i16, ptr, ptr, i16, ptr, ptr, i32, i32, i32, i32, i32, i64, i32, i32, i16, ptr, ptr, i32, ptr, ptr, ptr, i16, i32, ptr, ptr, i16, ptr, ptr, i32, i16, ptr, ptr, ptr, ptr, i32, i32, i16, i16, i32, ptr, i16, ptr, i32, i32, i32, i32, i32, i32, ptr, i16, ptr, ptr, i32, i16, ptr, i32, i16, i16, ptr, ptr, ptr, i16, ptr, ptr, ptr, ptr, i16, i16, ptr, i16, ptr, i16, ptr, i16, ptr, i16, ptr, ptr, ptr, ptr, i16, ptr, ptr, ptr, i32, ptr, i32, ptr, ptr, i16, ptr, ptr, i32, i16, ptr, ptr, i16, i16, ptr, i16, ptr, ptr, ptr, i32, ptr, i16, i16, ptr, ptr, ptr, ptr, ptr, ptr, ptr, ptr, i16, i32, i16, ptr, ptr, ptr, ptr, i32, ptr, ptr, ptr, i16, ptr, ptr, ptr, i16, ptr, i16, ptr, i16, i16, ptr }
%struct.openapi_resp_single_t = type { ptr, ptr, ptr, ptr }
%struct.data_parser_dump_cli_ctxt_t = type { i32, i32, ptr, ptr, ptr }
%struct.controller_ping_t = type { ptr, i8, i64, i32 }

@exit_code = dso_local global i32 0, align 4
@mime_type = dso_local global ptr null, align 8
@data_parser = dso_local global ptr null, align 8
@slurm_conf = external global %struct.slurm_conf_t, align 8
@stdout = external global ptr, align 8
@_print_ping.state = internal global [2 x ptr] [ptr @.str.48, ptr @.str.55], align 16
@.str.149 = private unnamed_addr constant [8 x i8] c"primary\00", align 1
@.str.150 = private unnamed_addr constant [7 x i8] c"backup\00", align 1
@.str.151 = private unnamed_addr constant [9 x i8] c"backup%d\00", align 1
@.str.152 = private unnamed_addr constant [27 x i8] c"Slurmctld(%s) at %s is %s\0A\00", align 1
@.str.153 = private unnamed_addr constant [43 x i8] c"*****************************************\0A\00", align 1
@.str.154 = private unnamed_addr constant [43 x i8] c"** RESTORE SLURMCTLD DAEMON TO SERVICE **\0A\00", align 1

; Function Attrs: nounwind uwtable
define internal void @_print_ping(i32 noundef %0, ptr noundef %1) #0 {
  %3 = alloca i32, align 4
  %4 = alloca ptr, align 8
  %5 = alloca [64 x i8], align 16
  %6 = alloca i8, align 1
  %7 = alloca ptr, align 8
  %8 = alloca %struct.openapi_resp_single_t, align 8
  %9 = alloca %struct.data_parser_dump_cli_ctxt_t, align 8
  %10 = alloca ptr, align 8
  %11 = alloca i32, align 4
  %12 = alloca ptr, align 8
  store i32 %0, ptr %3, align 4
  store ptr %1, ptr %4, align 8
  call void @llvm.lifetime.start.p0(i64 64, ptr %5) #12
  call void @llvm.lifetime.start.p0(i64 1, ptr %6) #12
  store i8 0, ptr %6, align 1
  call void @llvm.lifetime.start.p0(i64 8, ptr %7) #12
  %13 = call ptr (...) @ping_all_controllers()
  store ptr %13, ptr %7, align 8
  %14 = load ptr, ptr @mime_type, align 8
  %15 = icmp ne ptr %14, null
  br i1 %15, label %16, label %111

16:                                               ; preds = %2
  br label %17

17:                                               ; preds = %16
  call void @llvm.lifetime.start.p0(i64 32, ptr %8) #12
  call void @llvm.memset.p0.i64(ptr align 8 %8, i8 0, i64 32, i1 false)
  %18 = getelementptr inbounds nuw %struct.openapi_resp_single_t, ptr %8, i32 0, i32 3
  %19 = load ptr, ptr %7, align 8
  store ptr %19, ptr %18, align 8
  br label %20

20:                                               ; preds = %17
  call void @llvm.lifetime.start.p0(i64 32, ptr %9) #12
  %21 = getelementptr inbounds nuw %struct.data_parser_dump_cli_ctxt_t, ptr %9, i32 0, i32 0
  store i32 463606195, ptr %21, align 8
  %22 = getelementptr inbounds nuw %struct.data_parser_dump_cli_ctxt_t, ptr %9, i32 0, i32 1
  store i32 0, ptr %22, align 4
  %23 = getelementptr inbounds nuw %struct.data_parser_dump_cli_ctxt_t, ptr %9, i32 0, i32 2
  store ptr null, ptr %23, align 8
  %24 = getelementptr inbounds nuw %struct.data_parser_dump_cli_ctxt_t, ptr %9, i32 0, i32 3
  store ptr null, ptr %24, align 8
  %25 = getelementptr inbounds nuw %struct.data_parser_dump_cli_ctxt_t, ptr %9, i32 0, i32 4
  %26 = load ptr, ptr @data_parser, align 8
  store ptr %26, ptr %25, align 8
  call void @llvm.lifetime.start.p0(i64 8, ptr %10) #12
  store ptr %8, ptr %10, align 8
  %27 = getelementptr inbounds nuw %struct.openapi_resp_single_t, ptr %8, i32 0, i32 0
  %28 = load ptr, ptr %27, align 8
  %29 = icmp ne ptr %28, null
  br i1 %29, label %36, label %30

30:                                               ; preds = %20
  %31 = load i32, ptr %3, align 4
  %32 = load ptr, ptr %4, align 8
  %33 = load ptr, ptr @mime_type, align 8
  %34 = call ptr @data_parser_cli_meta(i32 noundef %31, ptr noundef %32, ptr noundef %33)
  %35 = getelementptr inbounds nuw %struct.openapi_resp_single_t, ptr %8, i32 0, i32 0
  store ptr %34, ptr %35, align 8
  br label %36

36:                                               ; preds = %30, %20
  %37 = getelementptr inbounds nuw %struct.openapi_resp_single_t, ptr %8, i32 0, i32 1
  %38 = load ptr, ptr %37, align 8
  %39 = icmp ne ptr %38, null
  br i1 %39, label %44, label %40

40:                                               ; preds = %36
  %41 = call ptr @list_create(ptr noundef @free_openapi_resp_error)
  %42 = getelementptr inbounds nuw %struct.data_parser_dump_cli_ctxt_t, ptr %9, i32 0, i32 2
  store ptr %41, ptr %42, align 8
  %43 = getelementptr inbounds nuw %struct.openapi_resp_single_t, ptr %8, i32 0, i32 1
  store ptr %41, ptr %43, align 8
  br label %48

44:                                               ; preds = %36
  %45 = getelementptr inbounds nuw %struct.openapi_resp_single_t, ptr %8, i32 0, i32 1
  %46 = load ptr, ptr %45, align 8
  %47 = getelementptr inbounds nuw %struct.data_parser_dump_cli_ctxt_t, ptr %9, i32 0, i32 2
  store ptr %46, ptr %47, align 8
  br label %48

48:                                               ; preds = %44, %40
  %49 = getelementptr inbounds nuw %struct.openapi_resp_single_t, ptr %8, i32 0, i32 2
  %50 = load ptr, ptr %49, align 8
  %51 = icmp ne ptr %50, null
  br i1 %51, label %56, label %52

52:                                               ; preds = %48
  %53 = call ptr @list_create(ptr noundef @free_openapi_resp_warning)
  %54 = getelementptr inbounds nuw %struct.data_parser_dump_cli_ctxt_t, ptr %9, i32 0, i32 3
  store ptr %53, ptr %54, align 8
  %55 = getelementptr inbounds nuw %struct.openapi_resp_single_t, ptr %8, i32 0, i32 2
  store ptr %53, ptr %55, align 8
  br label %60

56:                                               ; preds = %48
  %57 = getelementptr inbounds nuw %struct.openapi_resp_single_t, ptr %8, i32 0, i32 2
  %58 = load ptr, ptr %57, align 8
  %59 = getelementptr inbounds nuw %struct.data_parser_dump_cli_ctxt_t, ptr %9, i32 0, i32 3
  store ptr %58, ptr %59, align 8
  br label %60

60:                                               ; preds = %56, %52
  %61 = load ptr, ptr %10, align 8
  %62 = load ptr, ptr @mime_type, align 8
  %63 = load ptr, ptr @data_parser, align 8
  %64 = getelementptr inbounds nuw %struct.openapi_resp_single_t, ptr %8, i32 0, i32 0
  %65 = load ptr, ptr %64, align 8
  %66 = call i32 @data_parser_dump_cli_stdout(i32 noundef 294, ptr noundef %61, i32 noundef 32, ptr noundef null, ptr noundef %62, ptr noundef %63, ptr noundef %9, ptr noundef %65)
  store i32 %66, ptr @exit_code, align 4
  br label %67

67:                                               ; preds = %60
  %68 = load ptr, ptr %10, align 8
  %69 = icmp ne ptr %68, null
  br i1 %69, label %70, label %104

70:                                               ; preds = %67
  br label %71

71:                                               ; preds = %70
  %72 = load ptr, ptr %10, align 8
  %73 = getelementptr inbounds nuw %struct.openapi_resp_single_t, ptr %72, i32 0, i32 2
  %74 = load ptr, ptr %73, align 8
  %75 = icmp ne ptr %74, null
  br i1 %75, label %76, label %80

76:                                               ; preds = %71
  %77 = load ptr, ptr %10, align 8
  %78 = getelementptr inbounds nuw %struct.openapi_resp_single_t, ptr %77, i32 0, i32 2
  %79 = load ptr, ptr %78, align 8
  call void @list_destroy(ptr noundef %79)
  br label %80

80:                                               ; preds = %76, %71
  %81 = load ptr, ptr %10, align 8
  %82 = getelementptr inbounds nuw %struct.openapi_resp_single_t, ptr %81, i32 0, i32 2
  store ptr null, ptr %82, align 8
  br label %83

83:                                               ; preds = %80
  br label %84

84:                                               ; preds = %83
  br label %85

85:                                               ; preds = %84
  %86 = load ptr, ptr %10, align 8
  %87 = getelementptr inbounds nuw %struct.openapi_resp_single_t, ptr %86, i32 0, i32 1
  %88 = load ptr, ptr %87, align 8
  %89 = icmp ne ptr %88, null
  br i1 %89, label %90, label %94

90:                                               ; preds = %85
  %91 = load ptr, ptr %10, align 8
  %92 = getelementptr inbounds nuw %struct.openapi_resp_single_t, ptr %91, i32 0, i32 1
  %93 = load ptr, ptr %92, align 8
  call void @list_destroy(ptr noundef %93)
  br label %94

94:                                               ; preds = %90, %85
  %95 = load ptr, ptr %10, align 8
  %96 = getelementptr inbounds nuw %struct.openapi_resp_single_t, ptr %95, i32 0, i32 1
  store ptr null, ptr %96, align 8
  br label %97

97:                                               ; preds = %94
  br label %98

98:                                               ; preds = %97
  %99 = load ptr, ptr %10, align 8
  %100 = getelementptr inbounds nuw %struct.openapi_resp_single_t, ptr %99, i32 0, i32 0
  %101 = load ptr, ptr %100, align 8
  call void @free_openapi_resp_meta(ptr noundef %101)
  %102 = load ptr, ptr %10, align 8
  %103 = getelementptr inbounds nuw %struct.openapi_resp_single_t, ptr %102, i32 0, i32 0
  store ptr null, ptr %103, align 8
  br label %104

104:                                              ; preds = %98, %67
  br label %105

105:                                              ; preds = %104
  br label %106

106:                                              ; preds = %105
  call void @llvm.lifetime.end.p0(i64 8, ptr %10) #12
  call void @llvm.lifetime.end.p0(i64 32, ptr %9) #12
  br label %107

107:                                              ; preds = %106
  br label %108

108:                                              ; preds = %107
  call void @llvm.lifetime.end.p0(i64 32, ptr %8) #12
  br label %109

109:                                              ; preds = %108
  br label %110

110:                                              ; preds = %109
  call void @slurm_xfree(ptr noundef %7)
  store i32 1, ptr %11, align 4
  br label %188

111:                                              ; preds = %2
  store i32 1, ptr @exit_code, align 4
  call void @llvm.lifetime.start.p0(i64 8, ptr %12) #12
  %112 = load ptr, ptr %7, align 8
  store ptr %112, ptr %12, align 8
  br label %113

113:                                              ; preds = %171, %111
  %114 = load ptr, ptr %12, align 8
  %115 = icmp ne ptr %114, null
  br i1 %115, label %116, label %121

116:                                              ; preds = %113
  %117 = load ptr, ptr %12, align 8
  %118 = getelementptr inbounds nuw %struct.controller_ping_t, ptr %117, i32 0, i32 0
  %119 = load ptr, ptr %118, align 8
  %120 = icmp ne ptr %119, null
  br label %121

121:                                              ; preds = %116, %113
  %122 = phi i1 [ false, %113 ], [ %120, %116 ]
  br i1 %122, label %124, label %123

123:                                              ; preds = %121
  store i32 12, ptr %11, align 4
  call void @llvm.lifetime.end.p0(i64 8, ptr %12) #12
  br label %174

124:                                              ; preds = %121
  %125 = load ptr, ptr %12, align 8
  %126 = getelementptr inbounds nuw %struct.controller_ping_t, ptr %125, i32 0, i32 1
  %127 = load i8, ptr %126, align 8, !range !21, !noundef !22
  %128 = trunc i8 %127 to i1
  br i1 %128, label %129, label %130

129:                                              ; preds = %124
  store i32 0, ptr @exit_code, align 4
  br label %131

130:                                              ; preds = %124
  store i8 1, ptr %6, align 1
  br label %131

131:                                              ; preds = %130, %129
  %132 = load ptr, ptr %12, align 8
  %133 = getelementptr inbounds nuw %struct.controller_ping_t, ptr %132, i32 0, i32 3
  %134 = load i32, ptr %133, align 8
  %135 = icmp eq i32 %134, 0
  br i1 %135, label %136, label %139

136:                                              ; preds = %131
  %137 = getelementptr inbounds [64 x i8], ptr %5, i64 0, i64 0
  %138 = call i32 (ptr, i64, ptr, ...) @snprintf(ptr noundef %137, i64 noundef 64, ptr noundef @.str.149) #12
  br label %157

139:                                              ; preds = %131
  %140 = load ptr, ptr %12, align 8
  %141 = getelementptr inbounds nuw %struct.controller_ping_t, ptr %140, i32 0, i32 3
  %142 = load i32, ptr %141, align 8
  %143 = icmp eq i32 %142, 1
  br i1 %143, label %144, label %150

144:                                              ; preds = %139
  %145 = load i32, ptr getelementptr inbounds nuw (%struct.slurm_conf_t, ptr @slurm_conf, i32 0, i32 36), align 8
  %146 = icmp eq i32 %145, 2
  br i1 %146, label %147, label %150

147:                                              ; preds = %144
  %148 = getelementptr inbounds [64 x i8], ptr %5, i64 0, i64 0
  %149 = call i32 (ptr, i64, ptr, ...) @snprintf(ptr noundef %148, i64 noundef 64, ptr noundef @.str.150) #12
  br label %156

150:                                              ; preds = %144, %139
  %151 = getelementptr inbounds [64 x i8], ptr %5, i64 0, i64 0
  %152 = load ptr, ptr %12, align 8
  %153 = getelementptr inbounds nuw %struct.controller_ping_t, ptr %152, i32 0, i32 3
  %154 = load i32, ptr %153, align 8
  %155 = call i32 (ptr, i64, ptr, ...) @snprintf(ptr noundef %151, i64 noundef 64, ptr noundef @.str.151, i32 noundef %154) #12
  br label %156

156:                                              ; preds = %150, %147
  br label %157

157:                                              ; preds = %156, %136
  %158 = load ptr, ptr @stdout, align 8
  %159 = getelementptr inbounds [64 x i8], ptr %5, i64 0, i64 0
  %160 = load ptr, ptr %12, align 8
  %161 = getelementptr inbounds nuw %struct.controller_ping_t, ptr %160, i32 0, i32 0
  %162 = load ptr, ptr %161, align 8
  %163 = load ptr, ptr %12, align 8
  %164 = getelementptr inbounds nuw %struct.controller_ping_t, ptr %163, i32 0, i32 1
  %165 = load i8, ptr %164, align 8, !range !21, !noundef !22
  %166 = trunc i8 %165 to i1
  %167 = zext i1 %166 to i64
  %168 = getelementptr inbounds nuw [2 x ptr], ptr @_print_ping.state, i64 0, i64 %167
  %169 = load ptr, ptr %168, align 8
  %170 = call i32 (ptr, ptr, ...) @fprintf(ptr noundef %158, ptr noundef @.str.152, ptr noundef %159, ptr noundef %162, ptr noundef %169) #12
  br label %171

171:                                              ; preds = %157
  %172 = load ptr, ptr %12, align 8
  %173 = getelementptr inbounds nuw %struct.controller_ping_t, ptr %172, i32 1
  store ptr %173, ptr %12, align 8
  br label %113, !llvm.loop !27

174:                                              ; preds = %123
  call void @slurm_xfree(ptr noundef %7)
  %175 = load i8, ptr %6, align 1, !range !21, !noundef !22
  %176 = trunc i8 %175 to i1
  br i1 %176, label %177, label %187

177:                                              ; preds = %174
  %178 = call i32 @getuid() #12
  %179 = icmp eq i32 %178, 0
  br i1 %179, label %180, label %187

180:                                              ; preds = %177
  %181 = load ptr, ptr @stdout, align 8
  %182 = call i32 (ptr, ptr, ...) @fprintf(ptr noundef %181, ptr noundef @.str.153) #12
  %183 = load ptr, ptr @stdout, align 8
  %184 = call i32 (ptr, ptr, ...) @fprintf(ptr noundef %183, ptr noundef @.str.154) #12
  %185 = load ptr, ptr @stdout, align 8
  %186 = call i32 (ptr, ptr, ...) @fprintf(ptr noundef %185, ptr noundef @.str.153) #12
  br label %187

187:                                              ; preds = %180, %177, %174
  store i32 0, ptr %11, align 4
  br label %188

188:                                              ; preds = %187, %110
  call void @llvm.lifetime.end.p0(i64 8, ptr %7) #12
  call void @llvm.lifetime.end.p0(i64 1, ptr %6) #12
  call void @llvm.lifetime.end.p0(i64 64, ptr %5) #12
  %189 = load i32, ptr %11, align 4
  switch i32 %189, label %191 [
    i32 0, label %190
    i32 1, label %190
  ]

190:                                              ; preds = %188, %188
  ret void

191:                                              ; preds = %188
  unreachable
}