; Function Attrs: nounwind uwtable
define internal fastcc void @_print_ping(i32 noundef range(i32 1, -2147483648) %0, ptr noundef %1) unnamed_addr #8 {
  %3 = alloca [64 x i8], align 16
  %4 = alloca ptr, align 8
  %5 = alloca %struct.openapi_resp_single_t, align 8
  %6 = alloca %struct.data_parser_dump_cli_ctxt_t, align 8
  call void @llvm.lifetime.start.p0(i64 64, ptr nonnull %3) #18
  call void @llvm.lifetime.start.p0(i64 8, ptr nonnull %4) #18
  %7 = tail call ptr (...) @ping_all_controllers() #18
  store ptr %7, ptr %4, align 8
  %8 = load ptr, ptr @mime_type, align 8
  %.not = icmp eq ptr %8, null
  br i1 %.not, label %31, label %9

9:                                                ; preds = %2
  call void @llvm.lifetime.start.p0(i64 32, ptr nonnull %5) #18
  %10 = getelementptr inbounds nuw i8, ptr %5, i64 24
  store ptr %7, ptr %10, align 8
  call void @llvm.lifetime.start.p0(i64 32, ptr nonnull %6) #18
  store i32 463606195, ptr %6, align 8
  %11 = getelementptr inbounds nuw i8, ptr %6, i64 4
  %12 = getelementptr inbounds nuw i8, ptr %6, i64 8
  %13 = getelementptr inbounds nuw i8, ptr %6, i64 16
  %14 = getelementptr inbounds nuw i8, ptr %6, i64 24
  store i32 0, ptr %11, align 4
  %15 = load ptr, ptr @data_parser, align 8
  store ptr %15, ptr %14, align 8
  %16 = tail call ptr @data_parser_cli_meta(i32 noundef %0, ptr noundef %1, ptr noundef nonnull %8) #18
  store ptr %16, ptr %5, align 8
  %17 = getelementptr inbounds nuw i8, ptr %5, i64 8
  %18 = tail call ptr @list_create(ptr noundef nonnull @free_openapi_resp_error) #18
  store ptr %18, ptr %17, align 8
  store ptr %18, ptr %12, align 8
  %19 = getelementptr inbounds nuw i8, ptr %5, i64 16
  %20 = tail call ptr @list_create(ptr noundef nonnull @free_openapi_resp_warning) #18
  store ptr %20, ptr %19, align 8
  store ptr %20, ptr %13, align 8
  %21 = load ptr, ptr @mime_type, align 8
  %22 = load ptr, ptr @data_parser, align 8
  %23 = call i32 @data_parser_dump_cli_stdout(i32 noundef 294, ptr noundef nonnull %5, i32 noundef 32, ptr noundef null, ptr noundef %21, ptr noundef %22, ptr noundef nonnull %6, ptr noundef %16) #18
  store i32 %23, ptr @exit_code, align 4
  %24 = load ptr, ptr %19, align 8
  %.not33 = icmp eq ptr %24, null
  br i1 %.not33, label %26, label %25

25:                                               ; preds = %9
  call void @list_destroy(ptr noundef nonnull %24) #18
  br label %26

26:                                               ; preds = %25, %9
  store ptr null, ptr %19, align 8
  %27 = load ptr, ptr %17, align 8
  %.not34 = icmp eq ptr %27, null
  br i1 %.not34, label %29, label %28

28:                                               ; preds = %26
  call void @list_destroy(ptr noundef nonnull %27) #18
  br label %29

29:                                               ; preds = %28, %26
  store ptr null, ptr %17, align 8
  %30 = load ptr, ptr %5, align 8
  call void @free_openapi_resp_meta(ptr noundef %30) #18
  call void @llvm.lifetime.end.p0(i64 32, ptr nonnull %6) #18
  call void @llvm.lifetime.end.p0(i64 32, ptr nonnull %5) #18
  call void @slurm_xfree(ptr noundef nonnull %4) #18
  br label %69

31:                                               ; preds = %2
  store i32 1, ptr @exit_code, align 4
  %.not2835 = icmp eq ptr %7, null
  br i1 %.not2835, label %.critedge40, label %.lr.ph.preheader

.lr.ph.preheader:                                 ; preds = %31
  %32 = load ptr, ptr %7, align 8
  %.not2943 = icmp eq ptr %32, null
  br i1 %.not2943, label %.critedge47, label %.lr.ph46

.critedge:                                        ; preds = %.lr.ph
  call void @slurm_xfree(ptr noundef nonnull %4) #18
  br i1 %.1, label %59, label %69

.lr.ph46:                                         ; preds = %.lr.ph.preheader, %.lr.ph
  %33 = phi ptr [ %58, %.lr.ph ], [ %32, %.lr.ph.preheader ]
  %.0223645 = phi i1 [ %.1, %.lr.ph ], [ false, %.lr.ph.preheader ]
  %.03744 = phi ptr [ %57, %.lr.ph ], [ %7, %.lr.ph.preheader ]
  %34 = getelementptr inbounds nuw i8, ptr %.03744, i64 8
  %35 = load i8, ptr %34, align 8, !range !25, !noundef !26
  %36 = trunc nuw i8 %35 to i1
  br i1 %36, label %37, label %38

37:                                               ; preds = %.lr.ph46
  store i32 0, ptr @exit_code, align 4
  br label %38

38:                                               ; preds = %.lr.ph46, %37
  %.1 = phi i1 [ %.0223645, %37 ], [ true, %.lr.ph46 ]
  %39 = getelementptr inbounds nuw i8, ptr %.03744, i64 24
  %40 = load i32, ptr %39, align 8
  %41 = icmp eq i32 %40, 0
  br i1 %41, label %42, label %43

42:                                               ; preds = %38
  store i64 34184234955010672, ptr %3, align 16
  br label %.lr.ph

43:                                               ; preds = %38
  %44 = icmp eq i32 %40, 1
  %45 = load i32, ptr getelementptr inbounds nuw (i8, ptr @slurm_conf, i64 280), align 8
  %46 = icmp eq i32 %45, 2
  %or.cond = select i1 %44, i1 %46, i1 false
  br i1 %or.cond, label %47, label %48

47:                                               ; preds = %43
  call void @llvm.memcpy.p0.p0.i64(ptr noundef nonnull align 16 dereferenceable(7) %3, ptr noundef nonnull align 1 dereferenceable(7) @.str.150, i64 7, i1 false)
  br label %.lr.ph

48:                                               ; preds = %43
  %49 = call i32 (ptr, i64, ptr, ...) @snprintf(ptr noundef nonnull dereferenceable(1) %3, i64 noundef 64, ptr noundef nonnull @.str.151, i32 noundef %40) #18
  %.pre = load ptr, ptr %.03744, align 8
  %.pre42 = load i8, ptr %34, align 8, !range !25
  br label %.lr.ph

.lr.ph:                                           ; preds = %47, %48, %42
  %50 = phi i8 [ %35, %47 ], [ %.pre42, %48 ], [ %35, %42 ]
  %51 = phi ptr [ %33, %47 ], [ %.pre, %48 ], [ %33, %42 ]
  %52 = load ptr, ptr @stdout, align 8
  %53 = zext nneg i8 %50 to i64
  %54 = getelementptr inbounds nuw [2 x ptr], ptr @_print_ping.state, i64 0, i64 %53
  %55 = load ptr, ptr %54, align 8
  %56 = call i32 (ptr, ptr, ...) @fprintf(ptr noundef %52, ptr noundef nonnull @.str.152, ptr noundef nonnull %3, ptr noundef %51, ptr noundef %55) #18
  %57 = getelementptr inbounds nuw i8, ptr %.03744, i64 32
  %58 = load ptr, ptr %57, align 8
  %.not29 = icmp eq ptr %58, null
  br i1 %.not29, label %.critedge, label %.lr.ph46

59:                                               ; preds = %.critedge
  %60 = call i32 @getuid() #18
  %61 = icmp eq i32 %60, 0
  br i1 %61, label %62, label %69

62:                                               ; preds = %59
  %63 = load ptr, ptr @stdout, align 8
  %64 = call i64 @fwrite(ptr nonnull @.str.153, i64 42, i64 1, ptr %63)
  %65 = load ptr, ptr @stdout, align 8
  %66 = call i64 @fwrite(ptr nonnull @.str.154, i64 42, i64 1, ptr %65)
  %67 = load ptr, ptr @stdout, align 8
  %68 = call i64 @fwrite(ptr nonnull @.str.153, i64 42, i64 1, ptr %67)
  br label %69

.critedge40:                                      ; preds = %31
  call void @slurm_xfree(ptr noundef nonnull %4) #18
  br label %69

.critedge47:                                      ; preds = %.lr.ph.preheader
  call void @slurm_xfree(ptr noundef nonnull %4) #18
  br label %69

69:                                               ; preds = %.critedge47, %.critedge40, %.critedge, %59, %62, %29
  call void @llvm.lifetime.end.p0(i64 8, ptr nonnull %4) #18
  call void @llvm.lifetime.end.p0(i64 64, ptr nonnull %3) #18
  ret void
}